target datalayout = "e-m:e-p270:32:32-p271:32:32-p272:64:64-i64:64-i128:128-f80:128-n8:16:32:64-S128"
target triple = "x86_64-pc-linux-gnu"

%"struct.gmx::IMDSocket" = type { %struct.sockaddr_in, i32 }
%struct.sockaddr_in = type { i16, i16, %struct.in_addr, [8 x i8] }
%struct.in_addr = type { i32 }

@.str.1 = private unnamed_addr constant [123 x i8] c"generated/home/dtcxzyw/WorkSpace/Projects/compilers/llvm-opt-benchmark/bench/gromacs/gromacs/src/gromacs/imd/imdsocket.cpp\00", align 1
@.str.4 = private unnamed_addr constant [8 x i8] c"newsock\00", align 1

; Function Attrs: inlinehint mustprogress uwtable
define internal void @_ZL13gmx_snew_implIN3gmx9IMDSocketEEvPKcS3_iRPT_m(ptr noundef %0, ptr noundef %1, i32 noundef %2, ptr noundef nonnull align 8 dereferenceable(8) %3, i64 noundef %4) #3 {
  %6 = alloca ptr, align 8
  %7 = alloca ptr, align 8
  %8 = alloca i32, align 4
  %9 = alloca ptr, align 8
  %10 = alloca i64, align 8
  store ptr %0, ptr %6, align 8, !tbaa !16
  store ptr %1, ptr %7, align 8, !tbaa !16
  store i32 %2, ptr %8, align 4, !tbaa !15
  store ptr %3, ptr %9, align 8, !tbaa !18
  store i64 %4, ptr %10, align 8, !tbaa !21
  %11 = load ptr, ptr %6, align 8, !tbaa !16
  %12 = load ptr, ptr %7, align 8, !tbaa !16
  %13 = load i32, ptr %8, align 4, !tbaa !15
  %14 = load i64, ptr %10, align 8, !tbaa !21
  %15 = call noundef ptr @_Z11save_callocPKcS0_imm(ptr noundef %11, ptr noundef %12, i32 noundef %13, i64 noundef %14, i64 noundef 20)
  %16 = load ptr, ptr %9, align 8, !tbaa !18
  store ptr %15, ptr %16, align 8, !tbaa !4
  ret void
}

; Function Attrs: mustprogress uwtable
define noundef ptr @_ZN3gmx14imdsock_acceptEPNS_9IMDSocketE(ptr noundef %0) #1 {
  %2 = alloca ptr, align 8
  %3 = alloca ptr, align 8
  %4 = alloca i32, align 4
  %5 = alloca i32, align 4
  %6 = alloca ptr, align 8
  %7 = alloca i32, align 4
  store ptr %0, ptr %3, align 8, !tbaa !4
  call void @llvm.lifetime.start.p0(i64 4, ptr %4) #10
  store i32 16, ptr %4, align 4, !tbaa !15
  call void @llvm.lifetime.start.p0(i64 4, ptr %5) #10
  %8 = load ptr, ptr %3, align 8, !tbaa !4
  %9 = getelementptr inbounds nuw %"struct.gmx::IMDSocket", ptr %8, i32 0, i32 1
  %10 = load i32, ptr %9, align 4, !tbaa !9
  %11 = load ptr, ptr %3, align 8, !tbaa !4
  %12 = getelementptr inbounds nuw %"struct.gmx::IMDSocket", ptr %11, i32 0, i32 0
  %13 = call i32 @accept(i32 noundef %10, ptr noundef %12, ptr noundef %4)
  store i32 %13, ptr %5, align 4, !tbaa !15
  %14 = load i32, ptr %5, align 4, !tbaa !15
  %15 = icmp sge i32 %14, 0
  br i1 %15, label %16, label %25

16:                                               ; preds = %1
  call void @llvm.lifetime.start.p0(i64 8, ptr %6) #10
  call void @_ZL13gmx_snew_implIN3gmx9IMDSocketEEvPKcS3_iRPT_m(ptr noundef @.str.4, ptr noundef @.str.1, i32 noundef 245, ptr noundef nonnull align 8 dereferenceable(8) %6, i64 noundef 1)
  %17 = load ptr, ptr %3, align 8, !tbaa !4
  %18 = getelementptr inbounds nuw %"struct.gmx::IMDSocket", ptr %17, i32 0, i32 0
  %19 = load ptr, ptr %6, align 8, !tbaa !4
  %20 = getelementptr inbounds nuw %"struct.gmx::IMDSocket", ptr %19, i32 0, i32 0
  call void @llvm.memcpy.p0.p0.i64(ptr align 4 %20, ptr align 4 %18, i64 16, i1 false), !tbaa.struct !28
  %21 = load i32, ptr %5, align 4, !tbaa !15
  %22 = load ptr, ptr %6, align 8, !tbaa !4
  %23 = getelementptr inbounds nuw %"struct.gmx::IMDSocket", ptr %22, i32 0, i32 1
  store i32 %21, ptr %23, align 4, !tbaa !9
  %24 = load ptr, ptr %6, align 8, !tbaa !4
  store ptr %24, ptr %2, align 8
  store i32 1, ptr %7, align 4
  call void @llvm.lifetime.end.p0(i64 8, ptr %6) #10
  br label %29

25:                                               ; preds = %1
  %26 = call ptr @__errno_location() #11
  %27 = load i32, ptr %26, align 4, !tbaa !15
  %28 = call ptr @strerror(i32 noundef %27) #10
  call void @_ZN3gmxL15print_IMD_errorEPKciPc(ptr noundef @.str.1, i32 noundef 256, ptr noundef %28)
  store ptr null, ptr %2, align 8
  store i32 1, ptr %7, align 4
  br label %29

29:                                               ; preds = %25, %16
  call void @llvm.lifetime.end.p0(i64 4, ptr %5) #10
  call void @llvm.lifetime.end.p0(i64 4, ptr %4) #10
  %30 = load ptr, ptr %2, align 8
  ret ptr %30
}