; Function Attrs: mustprogress uwtable
define noundef ptr @_ZN3gmx14imdsock_acceptEPNS_9IMDSocketE(ptr noundef %0) local_unnamed_addr #1 {
  %2 = alloca i32, align 4
  call void @llvm.lifetime.start.p0(i64 4, ptr nonnull %2) #14
  store i32 16, ptr %2, align 4, !tbaa !12
  %3 = getelementptr inbounds nuw i8, ptr %0, i64 16
  %4 = load i32, ptr %3, align 4, !tbaa !4
  %5 = call i32 @accept(i32 noundef %4, ptr noundef %0, ptr noundef nonnull %2)
  %6 = icmp sgt i32 %5, -1
  br i1 %6, label %7, label %10

7:                                                ; preds = %1
  %8 = call noundef ptr @_Z11save_callocPKcS0_imm(ptr noundef nonnull @.str.4, ptr noundef nonnull @.str.1, i32 noundef 245, i64 noundef 1, i64 noundef 20)
  call void @llvm.memcpy.p0.p0.i64(ptr noundef nonnull align 4 dereferenceable(16) %8, ptr noundef nonnull align 4 dereferenceable(16) %0, i64 16, i1 false), !tbaa.struct !18
  %9 = getelementptr inbounds nuw i8, ptr %8, i64 16
  store i32 %5, ptr %9, align 4, !tbaa !4
  br label %14

10:                                               ; preds = %1
  %11 = tail call ptr @__errno_location() #15
  %12 = load i32, ptr %11, align 4, !tbaa !12
  %13 = call ptr @strerror(i32 noundef %12) #14
  call fastcc void @_ZN3gmxL15print_IMD_errorEPKciPc(i32 noundef 256, ptr noundef %13)
  br label %14

14:                                               ; preds = %10, %7
  %.0 = phi ptr [ %8, %7 ], [ null, %10 ]
  call void @llvm.lifetime.end.p0(i64 4, ptr nonnull %2) #14
  ret ptr %.0
}